target datalayout = "e-m:e-p270:32:32-p271:32:32-p272:64:64-i64:64-i128:128-f80:128-n8:16:32:64-S128"
target triple = "x86_64-pc-linux-gnu"

%struct.lua_State = type { %struct.GCRef, i8, i8, i8, i8, %struct.MRef, %struct.GCRef, ptr, ptr, %struct.MRef, %struct.MRef, %struct.GCRef, %struct.GCRef, ptr, i32 }
%struct.MRef = type { i64 }
%struct.GCRef = type { i64 }
%struct.global_State = type { ptr, ptr, %struct.GCState, %struct.GCstr, i8, i8, i8, i8, %struct.StrInternState, i32, %struct.GCRef, %struct.SBuf, %union.TValue, %union.TValue, %struct.Node, %union.TValue, %struct.GCupval, i32, i32, ptr, ptr, ptr, i32, i32, %struct.GCRef, %struct.MRef, %struct.MRef, %struct.PRNGState, [39 x %struct.GCRef] }
%struct.GCState = type { i64, i64, i8, i8, i8, i8, i32, %struct.GCRef, %struct.MRef, %struct.GCRef, %struct.GCRef, %struct.GCRef, %struct.GCRef, i64, i64, i32, i32, %struct.MRef }
%struct.GCstr = type { %struct.GCRef, i8, i8, i8, i8, i32, i32, i32 }
%struct.StrInternState = type { ptr, i32, i32, i32, i8, i8, i8, i8, i64 }
%struct.SBuf = type { ptr, ptr, ptr, %struct.MRef }
%struct.Node = type { %union.TValue, %union.TValue, %struct.MRef }
%union.TValue = type { i64 }
%struct.GCupval = type { %struct.GCRef, i8, i8, i8, i8, %union.anon, %struct.MRef, i32 }
%union.anon = type { %struct.anon.1 }
%struct.anon.1 = type { %struct.GCRef, %struct.GCRef }
%struct.PRNGState = type { [4 x i64] }

@.str.2 = private unnamed_addr constant [24 x i8] c"store to dead GC object\00", align 1

; Function Attrs: alwaysinline nounwind uwtable
define internal void @checklivetv(ptr noundef %0, ptr noundef %1, ptr noundef %2) #3 {
  %4 = alloca ptr, align 8
  %5 = alloca ptr, align 8
  %6 = alloca ptr, align 8
  store ptr %0, ptr %4, align 8, !tbaa !4
  store ptr %1, ptr %5, align 8, !tbaa !25
  store ptr %2, ptr %6, align 8, !tbaa !31
  ret void
}

; Function Attrs: alwaysinline nounwind uwtable
define internal void @setgcVraw(ptr noundef %0, ptr noundef %1, i32 noundef %2) #3 {
  %4 = alloca ptr, align 8
  %5 = alloca ptr, align 8
  %6 = alloca i32, align 4
  store ptr %0, ptr %4, align 8, !tbaa !25
  store ptr %1, ptr %5, align 8, !tbaa !64
  store i32 %2, ptr %6, align 4, !tbaa !30
  %7 = load ptr, ptr %5, align 8, !tbaa !64
  %8 = ptrtoint ptr %7 to i64
  %9 = load i32, ptr %6, align 4, !tbaa !30
  %10 = zext i32 %9 to i64
  %11 = shl i64 %10, 47
  %12 = or i64 %8, %11
  %13 = load ptr, ptr %4, align 8, !tbaa !25
  %14 = getelementptr inbounds nuw %struct.GCRef, ptr %13, i32 0, i32 0
  store i64 %12, ptr %14, align 8, !tbaa !22
  ret void
}

; Function Attrs: alwaysinline nounwind uwtable
define internal void @setgcV(ptr noundef %0, ptr noundef %1, ptr noundef %2, i32 noundef %3) #3 {
  %5 = alloca ptr, align 8
  %6 = alloca ptr, align 8
  %7 = alloca ptr, align 8
  %8 = alloca i32, align 4
  store ptr %0, ptr %5, align 8, !tbaa !4
  store ptr %1, ptr %6, align 8, !tbaa !25
  store ptr %2, ptr %7, align 8, !tbaa !64
  store i32 %3, ptr %8, align 4, !tbaa !30
  %9 = load ptr, ptr %6, align 8, !tbaa !25
  %10 = load ptr, ptr %7, align 8, !tbaa !64
  %11 = load i32, ptr %8, align 4, !tbaa !30
  call void @setgcVraw(ptr noundef %9, ptr noundef %10, i32 noundef %11)
  %12 = load ptr, ptr %5, align 8, !tbaa !4
  %13 = load ptr, ptr %6, align 8, !tbaa !25
  call void @checklivetv(ptr noundef %12, ptr noundef %13, ptr noundef @.str.2)
  ret void
}

; Function Attrs: alwaysinline nounwind uwtable
define internal void @lj_buf_reset(ptr noundef %0) #3 {
  %2 = alloca ptr, align 8
  store ptr %0, ptr %2, align 8, !tbaa !37
  %3 = load ptr, ptr %2, align 8, !tbaa !37
  %4 = getelementptr inbounds nuw %struct.SBuf, ptr %3, i32 0, i32 2
  %5 = load ptr, ptr %4, align 8, !tbaa !67
  %6 = load ptr, ptr %2, align 8, !tbaa !37
  %7 = getelementptr inbounds nuw %struct.SBuf, ptr %6, i32 0, i32 0
  store ptr %5, ptr %7, align 8, !tbaa !68
  ret void
}

; Function Attrs: alwaysinline nounwind uwtable
define internal void @setstrV(ptr noundef %0, ptr noundef %1, ptr noundef %2) #3 {
  %4 = alloca ptr, align 8
  %5 = alloca ptr, align 8
  %6 = alloca ptr, align 8
  store ptr %0, ptr %4, align 8, !tbaa !4
  store ptr %1, ptr %5, align 8, !tbaa !25
  store ptr %2, ptr %6, align 8, !tbaa !26
  %7 = load ptr, ptr %4, align 8, !tbaa !4
  %8 = load ptr, ptr %5, align 8, !tbaa !25
  %9 = load ptr, ptr %6, align 8, !tbaa !26
  call void @setgcV(ptr noundef %7, ptr noundef %8, ptr noundef %9, i32 noundef -5)
  ret void
}

; Function Attrs: alwaysinline nounwind uwtable
define internal ptr @lj_buf_str(ptr noundef %0, ptr noundef %1) #3 {
  %3 = alloca ptr, align 8
  %4 = alloca ptr, align 8
  store ptr %0, ptr %3, align 8, !tbaa !4
  store ptr %1, ptr %4, align 8, !tbaa !37
  %5 = load ptr, ptr %3, align 8, !tbaa !4
  %6 = load ptr, ptr %4, align 8, !tbaa !37
  %7 = getelementptr inbounds nuw %struct.SBuf, ptr %6, i32 0, i32 2
  %8 = load ptr, ptr %7, align 8, !tbaa !67
  %9 = load ptr, ptr %4, align 8, !tbaa !37
  %10 = getelementptr inbounds nuw %struct.SBuf, ptr %9, i32 0, i32 0
  %11 = load ptr, ptr %10, align 8, !tbaa !68
  %12 = load ptr, ptr %4, align 8, !tbaa !37
  %13 = getelementptr inbounds nuw %struct.SBuf, ptr %12, i32 0, i32 2
  %14 = load ptr, ptr %13, align 8, !tbaa !67
  %15 = ptrtoint ptr %11 to i64
  %16 = ptrtoint ptr %14 to i64
  %17 = sub i64 %15, %16
  %18 = trunc i64 %17 to i32
  %19 = zext i32 %18 to i64
  %20 = call ptr @lj_str_new(ptr noundef %5, ptr noundef %8, i64 noundef %19)
  ret ptr %20
}

; Function Attrs: alwaysinline nounwind uwtable
define internal ptr @lj_buf_tmp_(ptr noundef %0) #3 {
  %2 = alloca ptr, align 8
  %3 = alloca ptr, align 8
  store ptr %0, ptr %2, align 8, !tbaa !4
  call void @llvm.lifetime.start.p0(i64 8, ptr %3) #7
  %4 = load ptr, ptr %2, align 8, !tbaa !4
  %5 = getelementptr inbounds nuw %struct.lua_State, ptr %4, i32 0, i32 5
  %6 = getelementptr inbounds nuw %struct.MRef, ptr %5, i32 0, i32 0
  %7 = load i64, ptr %6, align 8, !tbaa !11
  %8 = inttoptr i64 %7 to ptr
  %9 = getelementptr inbounds nuw %struct.global_State, ptr %8, i32 0, i32 11
  store ptr %9, ptr %3, align 8, !tbaa !37
  %10 = load ptr, ptr %2, align 8, !tbaa !4
  %11 = ptrtoint ptr %10 to i64
  %12 = load ptr, ptr %3, align 8, !tbaa !37
  %13 = getelementptr inbounds nuw %struct.SBuf, ptr %12, i32 0, i32 3
  %14 = getelementptr inbounds nuw %struct.MRef, ptr %13, i32 0, i32 0
  store i64 %11, ptr %14, align 8, !tbaa !66
  %15 = load ptr, ptr %3, align 8, !tbaa !37
  call void @lj_buf_reset(ptr noundef %15)
  %16 = load ptr, ptr %3, align 8, !tbaa !37
  call void @llvm.lifetime.end.p0(i64 8, ptr %3) #7
  ret ptr %16
}

; Function Attrs: nounwind uwtable
define internal i32 @lj_cf_string_dump(ptr noundef %0) #0 {
  %2 = alloca ptr, align 8
  %3 = alloca ptr, align 8
  %4 = alloca i32, align 4
  %5 = alloca ptr, align 8
  %6 = alloca ptr, align 8
  %7 = alloca ptr, align 8
  %8 = alloca i8, align 1
  store ptr %0, ptr %2, align 8, !tbaa !4
  call void @llvm.lifetime.start.p0(i64 8, ptr %3) #7
  %9 = load ptr, ptr %2, align 8, !tbaa !4
  %10 = call ptr @lj_lib_checkLproto(ptr noundef %9, i32 noundef 1, i32 noundef 1)
  store ptr %10, ptr %3, align 8, !tbaa !49
  call void @llvm.lifetime.start.p0(i64 4, ptr %4) #7
  store i32 0, ptr %4, align 4, !tbaa !30
  call void @llvm.lifetime.start.p0(i64 8, ptr %5) #7
  call void @llvm.lifetime.start.p0(i64 8, ptr %6) #7
  %11 = load ptr, ptr %2, align 8, !tbaa !4
  %12 = getelementptr inbounds nuw %struct.lua_State, ptr %11, i32 0, i32 7
  %13 = load ptr, ptr %12, align 8, !tbaa !33
  %14 = getelementptr inbounds %union.TValue, ptr %13, i64 1
  store ptr %14, ptr %6, align 8, !tbaa !25
  %15 = load ptr, ptr %6, align 8, !tbaa !25
  %16 = load ptr, ptr %2, align 8, !tbaa !4
  %17 = getelementptr inbounds nuw %struct.lua_State, ptr %16, i32 0, i32 8
  %18 = load ptr, ptr %17, align 8, !tbaa !21
  %19 = icmp ult ptr %15, %18
  br i1 %19, label %20, label %65

20:                                               ; preds = %1
  %21 = load ptr, ptr %6, align 8, !tbaa !25
  %22 = load i64, ptr %21, align 8, !tbaa !22
  %23 = ashr i64 %22, 47
  %24 = trunc i64 %23 to i32
  %25 = icmp eq i32 %24, -5
  br i1 %25, label %26, label %54

26:                                               ; preds = %20
  call void @llvm.lifetime.start.p0(i64 8, ptr %7) #7
  %27 = load ptr, ptr %6, align 8, !tbaa !25
  %28 = getelementptr inbounds nuw %struct.GCRef, ptr %27, i32 0, i32 0
  %29 = load i64, ptr %28, align 8, !tbaa !22
  %30 = and i64 %29, 140737488355327
  %31 = inttoptr i64 %30 to ptr
  %32 = getelementptr inbounds %struct.GCstr, ptr %31, i64 1
  store ptr %32, ptr %7, align 8, !tbaa !31
  call void @llvm.lifetime.start.p0(i64 1, ptr %8) #7
  br label %33

33:                                               ; preds = %52, %26
  %34 = load ptr, ptr %7, align 8, !tbaa !31
  %35 = getelementptr inbounds nuw i8, ptr %34, i32 1
  store ptr %35, ptr %7, align 8, !tbaa !31
  %36 = load i8, ptr %34, align 1, !tbaa !22
  store i8 %36, ptr %8, align 1, !tbaa !22
  %37 = icmp ne i8 %36, 0
  br i1 %37, label %38, label %53

38:                                               ; preds = %33
  %39 = load i8, ptr %8, align 1, !tbaa !22
  %40 = sext i8 %39 to i32
  %41 = icmp eq i32 %40, 115
  br i1 %41, label %42, label %45

42:                                               ; preds = %38
  %43 = load i32, ptr %4, align 4, !tbaa !30
  %44 = or i32 %43, 2
  store i32 %44, ptr %4, align 4, !tbaa !30
  br label %45

45:                                               ; preds = %42, %38
  %46 = load i8, ptr %8, align 1, !tbaa !22
  %47 = sext i8 %46 to i32
  %48 = icmp eq i32 %47, 100
  br i1 %48, label %49, label %52

49:                                               ; preds = %45
  %50 = load i32, ptr %4, align 4, !tbaa !30
  %51 = or i32 %50, -2147483648
  store i32 %51, ptr %4, align 4, !tbaa !30
  br label %52

52:                                               ; preds = %49, %45
  br label %33, !llvm.loop !51

53:                                               ; preds = %33
  call void @llvm.lifetime.end.p0(i64 1, ptr %8) #7
  call void @llvm.lifetime.end.p0(i64 8, ptr %7) #7
  br label %64

54:                                               ; preds = %20
  %55 = load ptr, ptr %6, align 8, !tbaa !25
  %56 = load i64, ptr %55, align 8, !tbaa !22
  %57 = ashr i64 %56, 47
  %58 = trunc i64 %57 to i32
  %59 = icmp ult i32 %58, -2
  br i1 %59, label %60, label %63

60:                                               ; preds = %54
  %61 = load i32, ptr %4, align 4, !tbaa !30
  %62 = or i32 %61, 2
  store i32 %62, ptr %4, align 4, !tbaa !30
  br label %63

63:                                               ; preds = %60, %54
  br label %64

64:                                               ; preds = %63, %53
  br label %65

65:                                               ; preds = %64, %1
  %66 = load ptr, ptr %2, align 8, !tbaa !4
  %67 = call ptr @lj_buf_tmp_(ptr noundef %66)
  store ptr %67, ptr %5, align 8, !tbaa !37
  %68 = load ptr, ptr %2, align 8, !tbaa !4
  %69 = getelementptr inbounds nuw %struct.lua_State, ptr %68, i32 0, i32 7
  %70 = load ptr, ptr %69, align 8, !tbaa !33
  %71 = getelementptr inbounds %union.TValue, ptr %70, i64 1
  %72 = load ptr, ptr %2, align 8, !tbaa !4
  %73 = getelementptr inbounds nuw %struct.lua_State, ptr %72, i32 0, i32 8
  store ptr %71, ptr %73, align 8, !tbaa !21
  %74 = load ptr, ptr %3, align 8, !tbaa !49
  %75 = icmp ne ptr %74, null
  br i1 %75, label %76, label %83

76:                                               ; preds = %65
  %77 = load ptr, ptr %2, align 8, !tbaa !4
  %78 = load ptr, ptr %3, align 8, !tbaa !49
  %79 = load ptr, ptr %5, align 8, !tbaa !37
  %80 = load i32, ptr %4, align 4, !tbaa !30
  %81 = call i32 @lj_bcwrite(ptr noundef %77, ptr noundef %78, ptr noundef @writer_buf, ptr noundef %79, i32 noundef %80)
  %82 = icmp ne i32 %81, 0
  br i1 %82, label %83, label %85

83:                                               ; preds = %76, %65
  %84 = load ptr, ptr %2, align 8, !tbaa !4
  call void @lj_err_caller(ptr noundef %84, i32 noundef 1654) #8
  unreachable

85:                                               ; preds = %76
  %86 = load ptr, ptr %2, align 8, !tbaa !4
  %87 = load ptr, ptr %2, align 8, !tbaa !4
  %88 = getelementptr inbounds nuw %struct.lua_State, ptr %87, i32 0, i32 8
  %89 = load ptr, ptr %88, align 8, !tbaa !21
  %90 = getelementptr inbounds %union.TValue, ptr %89, i64 -1
  %91 = load ptr, ptr %2, align 8, !tbaa !4
  %92 = load ptr, ptr %5, align 8, !tbaa !37
  %93 = call ptr @lj_buf_str(ptr noundef %91, ptr noundef %92)
  call void @setstrV(ptr noundef %86, ptr noundef %90, ptr noundef %93)
  %94 = load ptr, ptr %2, align 8, !tbaa !4
  %95 = getelementptr inbounds nuw %struct.lua_State, ptr %94, i32 0, i32 5
  %96 = getelementptr inbounds nuw %struct.MRef, ptr %95, i32 0, i32 0
  %97 = load i64, ptr %96, align 8, !tbaa !11
  %98 = inttoptr i64 %97 to ptr
  %99 = getelementptr inbounds nuw %struct.global_State, ptr %98, i32 0, i32 2
  %100 = getelementptr inbounds nuw %struct.GCState, ptr %99, i32 0, i32 0
  %101 = load i64, ptr %100, align 8, !tbaa !39
  %102 = load ptr, ptr %2, align 8, !tbaa !4
  %103 = getelementptr inbounds nuw %struct.lua_State, ptr %102, i32 0, i32 5
  %104 = getelementptr inbounds nuw %struct.MRef, ptr %103, i32 0, i32 0
  %105 = load i64, ptr %104, align 8, !tbaa !11
  %106 = inttoptr i64 %105 to ptr
  %107 = getelementptr inbounds nuw %struct.global_State, ptr %106, i32 0, i32 2
  %108 = getelementptr inbounds nuw %struct.GCState, ptr %107, i32 0, i32 1
  %109 = load i64, ptr %108, align 8, !tbaa !48
  %110 = icmp uge i64 %101, %109
  %111 = xor i1 %110, true
  %112 = xor i1 %111, true
  %113 = zext i1 %112 to i32
  %114 = sext i32 %113 to i64
  %115 = call i64 @llvm.expect.i64(i64 %114, i64 0)
  %116 = icmp ne i64 %115, 0
  br i1 %116, label %117, label %120

117:                                              ; preds = %85
  %118 = load ptr, ptr %2, align 8, !tbaa !4
  %119 = call i32 @lj_gc_step(ptr noundef %118)
  br label %120

120:                                              ; preds = %117, %85
  call void @llvm.lifetime.end.p0(i64 8, ptr %6) #7
  call void @llvm.lifetime.end.p0(i64 8, ptr %5) #7
  call void @llvm.lifetime.end.p0(i64 4, ptr %4) #7
  call void @llvm.lifetime.end.p0(i64 8, ptr %3) #7
  ret i32 1
}