; Function Attrs: nounwind uwtable
define internal noundef i32 @lj_cf_string_dump(ptr noundef %0) #0 {
  %2 = tail call ptr @lj_lib_checkLproto(ptr noundef %0, i32 noundef 1, i32 noundef 1) #7
  %3 = getelementptr inbounds nuw i8, ptr %0, i64 32
  %4 = load ptr, ptr %3, align 8, !tbaa !22
  %5 = getelementptr inbounds nuw i8, ptr %4, i64 8
  %6 = getelementptr inbounds nuw i8, ptr %0, i64 40
  %7 = load ptr, ptr %6, align 8, !tbaa !15
  %8 = icmp ult ptr %5, %7
  br i1 %8, label %9, label %.loopexit

9:                                                ; preds = %1
  %10 = load i64, ptr %5, align 8, !tbaa !16
  %11 = ashr i64 %10, 47
  %12 = icmp eq i64 %11, -5
  br i1 %12, label %13, label %25

13:                                               ; preds = %9
  %14 = and i64 %10, 140737488355327
  %15 = inttoptr i64 %14 to ptr
  %16 = getelementptr inbounds nuw i8, ptr %15, i64 24
  br label %17

17:                                               ; preds = %22, %13
  %.028 = phi ptr [ %16, %13 ], [ %18, %22 ]
  %.1 = phi i32 [ 0, %13 ], [ %spec.select, %22 ]
  %18 = getelementptr inbounds nuw i8, ptr %.028, i64 1
  %19 = load i8, ptr %.028, align 1, !tbaa !16
  switch i8 %19, label %22 [
    i8 0, label %.loopexit
    i8 115, label %20
  ]

20:                                               ; preds = %17
  %21 = or i32 %.1, 2
  br label %22

22:                                               ; preds = %17, %20
  %.2 = phi i32 [ %21, %20 ], [ %.1, %17 ]
  %23 = icmp eq i8 %19, 100
  %24 = or i32 %.2, -2147483648
  %spec.select = select i1 %23, i32 %24, i32 %.2
  br label %17, !llvm.loop !41

25:                                               ; preds = %9
  %26 = icmp ult i64 %11, -2
  %spec.select36 = select i1 %26, i32 2, i32 0
  br label %.loopexit

.loopexit:                                        ; preds = %17, %25, %1
  %.0 = phi i32 [ 0, %1 ], [ %spec.select36, %25 ], [ %.1, %17 ]
  %27 = getelementptr inbounds nuw i8, ptr %0, i64 16
  %28 = load i64, ptr %27, align 8, !tbaa !4
  %29 = inttoptr i64 %28 to ptr
  %30 = getelementptr inbounds nuw i8, ptr %29, i64 200
  %31 = ptrtoint ptr %0 to i64
  %32 = getelementptr inbounds nuw i8, ptr %29, i64 224
  store i64 %31, ptr %32, align 8, !tbaa !26
  %33 = getelementptr inbounds nuw i8, ptr %29, i64 216
  %34 = load ptr, ptr %33, align 8, !tbaa !29
  store ptr %34, ptr %30, align 8, !tbaa !30
  store ptr %5, ptr %6, align 8, !tbaa !15
  %.not33 = icmp eq ptr %2, null
  br i1 %.not33, label %37, label %35

35:                                               ; preds = %.loopexit
  %36 = tail call i32 @lj_bcwrite(ptr noundef nonnull %0, ptr noundef nonnull %2, ptr noundef nonnull @writer_buf, ptr noundef nonnull %30, i32 noundef %.0) #7
  %.not34 = icmp eq i32 %36, 0
  br i1 %.not34, label %38, label %37

37:                                               ; preds = %35, %.loopexit
  tail call void @lj_err_caller(ptr noundef nonnull %0, i32 noundef 1654) #8
  unreachable

38:                                               ; preds = %35
  %39 = load ptr, ptr %6, align 8, !tbaa !15
  %40 = getelementptr inbounds i8, ptr %39, i64 -8
  %41 = load ptr, ptr %33, align 8, !tbaa !29
  %42 = load ptr, ptr %30, align 8, !tbaa !30
  %43 = ptrtoint ptr %42 to i64
  %44 = ptrtoint ptr %41 to i64
  %45 = sub i64 %43, %44
  %46 = and i64 %45, 4294967295
  %47 = tail call ptr @lj_str_new(ptr noundef nonnull %0, ptr noundef %41, i64 noundef %46) #7
  %48 = ptrtoint ptr %47 to i64
  %49 = or i64 %48, -703687441776640
  store i64 %49, ptr %40, align 8, !tbaa !16
  %50 = load i64, ptr %27, align 8, !tbaa !4
  %51 = inttoptr i64 %50 to ptr
  %52 = getelementptr inbounds nuw i8, ptr %51, i64 16
  %53 = load i64, ptr %52, align 8, !tbaa !31
  %54 = getelementptr inbounds nuw i8, ptr %51, i64 24
  %55 = load i64, ptr %54, align 8, !tbaa !39
  %.not35 = icmp ult i64 %53, %55
  br i1 %.not35, label %58, label %56, !prof !40

56:                                               ; preds = %38
  %57 = tail call i32 @lj_gc_step(ptr noundef nonnull %0) #7
  br label %58

58:                                               ; preds = %56, %38
  ret i32 1
}